; Function Attrs: mustprogress uwtable
define void @usnum_roundTo_77(ptr noundef %0, i32 noundef %1, i32 noundef %2, ptr noundef %3) local_unnamed_addr #1 {
  %5 = load i32, ptr %3, align 4, !tbaa !13
  %6 = icmp slt i32 %5, 1
  br i1 %6, label %7, label %_ZN6icu_7713IcuCApiHelperI13USimpleNumberNS_6number4impl17USimpleNumberDataELi1397640448EE8validateEPS1_R10UErrorCode.exit.thread

7:                                                ; preds = %4
  %8 = icmp eq ptr %0, null
  br i1 %8, label %.sink.split.i.i, label %9

9:                                                ; preds = %7
  %10 = load i32, ptr %0, align 4, !tbaa !77
  %.not9.i.i = icmp eq i32 %10, 1397640448
  br i1 %.not9.i.i, label %_ZN6icu_7713IcuCApiHelperI13USimpleNumberNS_6number4impl17USimpleNumberDataELi1397640448EE8validateEPS1_R10UErrorCode.exit, label %.sink.split.i.i

.sink.split.i.i:                                  ; preds = %9, %7
  %.sink.i.i = phi i32 [ 1, %7 ], [ 3, %9 ]
  store i32 %.sink.i.i, ptr %3, align 4, !tbaa !13
  br label %_ZN6icu_7713IcuCApiHelperI13USimpleNumberNS_6number4impl17USimpleNumberDataELi1397640448EE8validateEPS1_R10UErrorCode.exit.thread

_ZN6icu_7713IcuCApiHelperI13USimpleNumberNS_6number4impl17USimpleNumberDataELi1397640448EE8validateEPS1_R10UErrorCode.exit: ; preds = %9
  %11 = getelementptr inbounds nuw i8, ptr %0, i64 8
  tail call void @_ZN6icu_776number12SimpleNumber7roundToEi25UNumberFormatRoundingModeR10UErrorCode(ptr noundef nonnull align 8 dereferenceable(12) %11, i32 noundef %1, i32 noundef %2, ptr noundef nonnull align 4 dereferenceable(4) %3)
  br label %_ZN6icu_7713IcuCApiHelperI13USimpleNumberNS_6number4impl17USimpleNumberDataELi1397640448EE8validateEPS1_R10UErrorCode.exit.thread

_ZN6icu_7713IcuCApiHelperI13USimpleNumberNS_6number4impl17USimpleNumberDataELi1397640448EE8validateEPS1_R10UErrorCode.exit.thread: ; preds = %.sink.split.i.i, %4, %_ZN6icu_7713IcuCApiHelperI13USimpleNumberNS_6number4impl17USimpleNumberDataELi1397640448EE8validateEPS1_R10UErrorCode.exit
  ret void
}